; Function Attrs: nounwind uwtable
define internal range(i32 -9990, 1) i32 @arkSUNStepperReset(ptr noundef %0, double noundef %1, ptr noundef %2) #0 {
  %4 = alloca ptr, align 8
  call void @llvm.lifetime.start.p0(i64 8, ptr nonnull %4) #3
  %5 = call i32 @SUNStepper_GetContent(ptr noundef %0, ptr noundef nonnull %4) #3
  %6 = load ptr, ptr %4, align 8, !tbaa !20
  %7 = call i32 @ARKodeReset(ptr noundef %6, double noundef %1, ptr noundef %2) #3
  %8 = getelementptr inbounds nuw i8, ptr %0, i64 24
  store i32 %7, ptr %8, align 8, !tbaa !21
  %.not = icmp eq i32 %7, 0
  %. = select i1 %.not, i32 0, i32 -9990
  call void @llvm.lifetime.end.p0(i64 8, ptr nonnull %4) #3
  ret i32 %.
}